	.file	"IsTree.c"
	.text
.Ltext0:
	.comm	father,40000,32
	.comm	height,40000,32
	.comm	inDegree,40000,32
	.comm	visit,10000,32
	.globl	Initial
	.type	Initial, @function
Initial:
.LFB2:
	.file 1 "IsTree.c"
	.loc 1 15 0
	.cfi_startproc
	pushl	%ebp
	.cfi_def_cfa_offset 8
	.cfi_offset 5, -8
	movl	%esp, %ebp
	.cfi_def_cfa_register 5
	subl	$16, %esp
.LBB2:
	.loc 1 16 0
	movl	$0, -4(%ebp)
	jmp	.L2
.L3:
	.loc 1 18 0 discriminator 3
	movl	-4(%ebp), %eax
	movl	-4(%ebp), %edx
	movl	%edx, father(,%eax,4)
	.loc 1 19 0 discriminator 3
	movl	-4(%ebp), %eax
	movl	$0, height(,%eax,4)
	.loc 1 20 0 discriminator 3
	movl	-4(%ebp), %eax
	movl	$0, inDegree(,%eax,4)
	.loc 1 21 0 discriminator 3
	movl	-4(%ebp), %eax
	addl	$visit, %eax
	movb	$0, (%eax)
	.loc 1 16 0 discriminator 3
	addl	$1, -4(%ebp)
.L2:
	.loc 1 16 0 is_stmt 0 discriminator 1
	cmpl	$9999, -4(%ebp)
	jle	.L3
.LBE2:
	.loc 1 23 0 is_stmt 1
	nop
	leave
	.cfi_restore 5
	.cfi_def_cfa 4, 4
	ret
	.cfi_endproc
.LFE2:
	.size	Initial, .-Initial
	.globl	Find
	.type	Find, @function
Find:
.LFB3:
	.loc 1 26 0
	.cfi_startproc
	pushl	%ebp
	.cfi_def_cfa_offset 8
	.cfi_offset 5, -8
	movl	%esp, %ebp
	.cfi_def_cfa_register 5
	subl	$8, %esp
	.loc 1 27 0
	movl	8(%ebp), %eax
	movl	father(,%eax,4), %eax
	cmpl	8(%ebp), %eax
	je	.L5
	.loc 1 29 0
	movl	8(%ebp), %eax
	movl	father(,%eax,4), %eax
	subl	$12, %esp
	pushl	%eax
	call	Find
	addl	$16, %esp
	movl	%eax, %edx
	movl	8(%ebp), %eax
	movl	%edx, father(,%eax,4)
.L5:
	.loc 1 31 0
	movl	8(%ebp), %eax
	movl	father(,%eax,4), %eax
	.loc 1 32 0
	leave
	.cfi_restore 5
	.cfi_def_cfa 4, 4
	ret
	.cfi_endproc
.LFE3:
	.size	Find, .-Find
	.globl	Union
	.type	Union, @function
Union:
.LFB4:
	.loc 1 35 0
	.cfi_startproc
	pushl	%ebp
	.cfi_def_cfa_offset 8
	.cfi_offset 5, -8
	movl	%esp, %ebp
	.cfi_def_cfa_register 5
	subl	$8, %esp
	.loc 1 36 0
	subl	$12, %esp
	pushl	8(%ebp)
	call	Find
	addl	$16, %esp
	movl	%eax, 8(%ebp)
	.loc 1 37 0
	subl	$12, %esp
	pushl	12(%ebp)
	call	Find
	addl	$16, %esp
	movl	%eax, 12(%ebp)
	.loc 1 39 0
	movl	8(%ebp), %eax
	cmpl	12(%ebp), %eax
	je	.L11
	.loc 1 41 0
	movl	8(%ebp), %eax
	movl	height(,%eax,4), %edx
	movl	12(%ebp), %eax
	movl	height(,%eax,4), %eax
	cmpl	%eax, %edx
	jge	.L9
	.loc 1 43 0
	movl	8(%ebp), %eax
	movl	12(%ebp), %edx
	movl	%edx, father(,%eax,4)
	.loc 1 52 0
	jmp	.L11
.L9:
	.loc 1 44 0
	movl	8(%ebp), %eax
	movl	height(,%eax,4), %edx
	movl	12(%ebp), %eax
	movl	height(,%eax,4), %eax
	cmpl	%eax, %edx
	jle	.L10
	.loc 1 46 0
	movl	12(%ebp), %eax
	movl	8(%ebp), %edx
	movl	%edx, father(,%eax,4)
	.loc 1 52 0
	jmp	.L11
.L10:
	.loc 1 48 0
	movl	12(%ebp), %eax
	movl	8(%ebp), %edx
	movl	%edx, father(,%eax,4)
	.loc 1 49 0
	movl	8(%ebp), %eax
	movl	height(,%eax,4), %eax
	leal	1(%eax), %edx
	movl	8(%ebp), %eax
	movl	%edx, height(,%eax,4)
.L11:
	.loc 1 52 0
	nop
	leave
	.cfi_restore 5
	.cfi_def_cfa 4, 4
	ret
	.cfi_endproc
.LFE4:
	.size	Union, .-Union
	.globl	IsTree
	.type	IsTree, @function
IsTree:
.LFB5:
	.loc 1 55 0
	.cfi_startproc
	pushl	%ebp
	.cfi_def_cfa_offset 8
	.cfi_offset 5, -8
	movl	%esp, %ebp
	.cfi_def_cfa_register 5
	subl	$16, %esp
	.loc 1 56 0
	movl	$0, -12(%ebp)
	.loc 1 57 0
	movl	$0, -8(%ebp)
.LBB3:
	.loc 1 58 0
	movl	$1, -4(%ebp)
	jmp	.L13
.L18:
	.loc 1 60 0
	movl	-4(%ebp), %eax
	addl	$visit, %eax
	movzbl	(%eax), %eax
	testb	%al, %al
	je	.L14
	.loc 1 61 0
	movl	-4(%ebp), %eax
	movl	father(,%eax,4), %eax
	cmpl	-4(%ebp), %eax
	jne	.L15
	.loc 1 63 0
	addl	$1, -12(%ebp)
.L15:
	.loc 1 65 0
	movl	-4(%ebp), %eax
	movl	inDegree(,%eax,4), %eax
	testl	%eax, %eax
	jne	.L16
	.loc 1 67 0
	addl	$1, -8(%ebp)
	jmp	.L14
.L16:
	.loc 1 68 0
	movl	-4(%ebp), %eax
	movl	inDegree(,%eax,4), %eax
	cmpl	$1, %eax
	jle	.L14
	.loc 1 70 0
	movl	$0, %eax
	jmp	.L17
.L14:
	.loc 1 58 0 discriminator 2
	addl	$1, -4(%ebp)
.L13:
	.loc 1 58 0 is_stmt 0 discriminator 1
	cmpl	$9999, -4(%ebp)
	jle	.L18
.LBE3:
	.loc 1 74 0 is_stmt 1
	cmpl	$1, -12(%ebp)
	jne	.L19
	.loc 1 74 0 is_stmt 0 discriminator 1
	cmpl	$1, -8(%ebp)
	jne	.L19
	.loc 1 76 0 is_stmt 1
	movl	$1, %eax
	jmp	.L17
.L19:
	.loc 1 78 0
	cmpl	$0, -12(%ebp)
	jne	.L20
	.loc 1 78 0 is_stmt 0 discriminator 1
	cmpl	$0, -8(%ebp)
	jne	.L20
	.loc 1 80 0 is_stmt 1
	movl	$1, %eax
	jmp	.L17
.L20:
	.loc 1 82 0
	movl	$0, %eax
.L17:
	.loc 1 83 0
	leave
	.cfi_restore 5
	.cfi_def_cfa 4, 4
	ret
	.cfi_endproc
.LFE5:
	.size	IsTree, .-IsTree
	.section	.rodata
.LC0:
	.string	"rw"
.LC1:
	.string	"./tc.txt"
.LC2:
	.string	"Failed open tc.txt"
.LC3:
	.string	"%d %d"
.LC4:
	.string	"case %d is a tree.\n"
.LC5:
	.string	"case %d isnot a tree.\n"
	.text
	.globl	main
	.type	main, @function
main:
.LFB6:
	.loc 1 86 0
	.cfi_startproc
	leal	4(%esp), %ecx
	.cfi_def_cfa 1, 0
	andl	$-16, %esp
	pushl	-4(%ecx)
	pushl	%ebp
	.cfi_escape 0x10,0x5,0x2,0x75,0
	movl	%esp, %ebp
	pushl	%ecx
	.cfi_escape 0xf,0x3,0x75,0x7c,0x6
	subl	$36, %esp
	.loc 1 86 0
	movl	%gs:20, %eax
	movl	%eax, -12(%ebp)
	xorl	%eax, %eax
	.loc 1 88 0
	movl	$1, -20(%ebp)
	.loc 1 90 0
	subl	$8, %esp
	pushl	$.LC0
	pushl	$.LC1
	call	fopen
	addl	$16, %esp
	movl	%eax, -16(%ebp)
	cmpl	$0, -16(%ebp)
	jne	.L22
	.loc 1 92 0
	subl	$12, %esp
	pushl	$.LC2
	call	puts
	addl	$16, %esp
	.loc 1 93 0
	movl	$1, %eax
	jmp	.L30
.L22:
	.loc 1 95 0
	call	Initial
.L29:
	.loc 1 98 0
	leal	-24(%ebp), %eax
	pushl	%eax
	leal	-28(%ebp), %eax
	pushl	%eax
	pushl	$.LC3
	pushl	-16(%ebp)
	call	__isoc99_fscanf
	addl	$16, %esp
	.loc 1 100 0
	movl	-28(%ebp), %eax
	testl	%eax, %eax
	js	.L24
	.loc 1 100 0 is_stmt 0 discriminator 1
	movl	-24(%ebp), %eax
	testl	%eax, %eax
	js	.L24
	.loc 1 104 0 is_stmt 1
	movl	-28(%ebp), %eax
	testl	%eax, %eax
	jne	.L25
	.loc 1 104 0 is_stmt 0 discriminator 1
	movl	-24(%ebp), %eax
	testl	%eax, %eax
	jne	.L25
	.loc 1 106 0 is_stmt 1
	call	IsTree
	testb	%al, %al
	je	.L26
	.loc 1 108 0
	movl	-20(%ebp), %eax
	leal	1(%eax), %edx
	movl	%edx, -20(%ebp)
	subl	$8, %esp
	pushl	%eax
	pushl	$.LC4
	call	printf
	addl	$16, %esp
	jmp	.L27
.L26:
	.loc 1 111 0
	movl	-20(%ebp), %eax
	leal	1(%eax), %edx
	movl	%edx, -20(%ebp)
	subl	$8, %esp
	pushl	%eax
	pushl	$.LC5
	call	printf
	addl	$16, %esp
.L27:
	.loc 1 113 0
	call	Initial
	jmp	.L28
.L25:
	.loc 1 116 0
	movl	-28(%ebp), %eax
	movb	$1, visit(%eax)
	.loc 1 117 0
	movl	-24(%ebp), %eax
	movb	$1, visit(%eax)
	.loc 1 118 0
	movl	-24(%ebp), %eax
	movl	inDegree(,%eax,4), %edx
	addl	$1, %edx
	movl	%edx, inDegree(,%eax,4)
	.loc 1 119 0
	movl	-24(%ebp), %edx
	movl	-28(%ebp), %eax
	subl	$8, %esp
	pushl	%edx
	pushl	%eax
	call	Union
	addl	$16, %esp
.L28:
	.loc 1 121 0
	jmp	.L29
.L24:
	.loc 1 122 0
	subl	$12, %esp
	pushl	-16(%ebp)
	call	fclose
	addl	$16, %esp
	.loc 1 123 0
	movl	$0, %eax
.L30:
	.loc 1 124 0 discriminator 1
	movl	-12(%ebp), %ecx
	xorl	%gs:20, %ecx
	je	.L31
	.loc 1 124 0 is_stmt 0
	call	__stack_chk_fail
.L31:
	movl	-4(%ebp), %ecx
	.cfi_def_cfa 1, 0
	leave
	.cfi_restore 5
	leal	-4(%ecx), %esp
	.cfi_def_cfa 4, 4
	ret
	.cfi_endproc
.LFE6:
	.size	main, .-main
.Letext0:
	.file 2 "/usr/lib/gcc/x86_64-linux-gnu/5/include/stddef.h"
	.file 3 "/usr/include/bits/types.h"
	.file 4 "/usr/include/stdio.h"
	.file 5 "/usr/include/libio.h"
	.section	.note.GNU-stack,"",@progbits
